; ModuleID = '10/1008.c'
source_filename = "10/1008.c"
target datalayout = "e-m:e-p270:32:32-p271:32:32-p272:64:64-i64:64-f80:128-n8:16:32:64-S128"
target triple = "x86_64-pc-linux-gnu"

@.str = private unnamed_addr constant [3 x i8] c"%d\00", align 1
@.str.1 = private unnamed_addr constant [4 x i8] c"%d\0A\00", align 1

; Function Attrs: noinline nounwind uwtable
define dso_local i32 @main() #0 {
  %1 = alloca i32, align 4
  %2 = alloca i32, align 4
  %3 = alloca i32, align 4
  %4 = alloca i32, align 4
  %5 = alloca i32, align 4
  %6 = alloca i32*, align 8
  %7 = alloca i32*, align 8
  store i32 0, i32* %1, align 4
  %8 = call i32 (i8*, ...) @__isoc99_scanf(i8* getelementptr inbounds ([3 x i8], [3 x i8]* @.str, i64 0, i64 0), i32* %2)
  %9 = load i32, i32* %2, align 4
  %10 = sext i32 %9 to i64
  %11 = mul i64 %10, 4
  %12 = call noalias i8* @malloc(i64 %11) #3
  %13 = bitcast i8* %12 to i32*
  store i32* %13, i32** %6, align 8
  %14 = load i32, i32* %2, align 4
  %15 = sext i32 %14 to i64
  %16 = mul i64 %15, 4
  %17 = call noalias i8* @malloc(i64 %16) #3
  %18 = bitcast i8* %17 to i32*
  store i32* %18, i32** %7, align 8
  store i32 0, i32* %3, align 4
  br label %19

19:                                               ; preds = %29, %0
  %20 = load i32, i32* %3, align 4
  %21 = load i32, i32* %2, align 4
  %22 = icmp slt i32 %20, %21
  br i1 %22, label %23, label %32

23:                                               ; preds = %19
  %24 = load i32*, i32** %6, align 8
  %25 = load i32, i32* %3, align 4
  %26 = sext i32 %25 to i64
  %27 = getelementptr inbounds i32, i32* %24, i64 %26
  %28 = call i32 (i8*, ...) @__isoc99_scanf(i8* getelementptr inbounds ([3 x i8], [3 x i8]* @.str, i64 0, i64 0), i32* %27)
  br label %29

29:                                               ; preds = %23
  %30 = load i32, i32* %3, align 4
  %31 = add nsw i32 %30, 1
  store i32 %31, i32* %3, align 4
  br label %19

32:                                               ; preds = %19
  store i32 0, i32* %3, align 4
  br label %33

33:                                               ; preds = %42, %32
  %34 = load i32, i32* %3, align 4
  %35 = load i32, i32* %2, align 4
  %36 = icmp slt i32 %34, %35
  br i1 %36, label %37, label %45

37:                                               ; preds = %33
  %38 = load i32*, i32** %7, align 8
  %39 = load i32, i32* %3, align 4
  %40 = sext i32 %39 to i64
  %41 = getelementptr inbounds i32, i32* %38, i64 %40
  store i32 0, i32* %41, align 4
  br label %42

42:                                               ; preds = %37
  %43 = load i32, i32* %3, align 4
  %44 = add nsw i32 %43, 1
  store i32 %44, i32* %3, align 4
  br label %33

45:                                               ; preds = %33
  store i32 0, i32* %3, align 4
  br label %46

46:                                               ; preds = %92, %45
  %47 = load i32, i32* %3, align 4
  %48 = load i32, i32* %2, align 4
  %49 = icmp slt i32 %47, %48
  br i1 %49, label %50, label %95

50:                                               ; preds = %46
  store i32 0, i32* %5, align 4
  store i32 0, i32* %4, align 4
  br label %51

51:                                               ; preds = %82, %50
  %52 = load i32, i32* %4, align 4
  %53 = load i32, i32* %3, align 4
  %54 = icmp sle i32 %52, %53
  br i1 %54, label %55, label %85

55:                                               ; preds = %51
  %56 = load i32*, i32** %6, align 8
  %57 = load i32, i32* %3, align 4
  %58 = sext i32 %57 to i64
  %59 = getelementptr inbounds i32, i32* %56, i64 %58
  %60 = load i32, i32* %59, align 4
  %61 = load i32*, i32** %6, align 8
  %62 = load i32, i32* %4, align 4
  %63 = sext i32 %62 to i64
  %64 = getelementptr inbounds i32, i32* %61, i64 %63
  %65 = load i32, i32* %64, align 4
  %66 = icmp sle i32 %60, %65
  br i1 %66, label %67, label %81

67:                                               ; preds = %55
  %68 = load i32, i32* %5, align 4
  %69 = load i32*, i32** %7, align 8
  %70 = load i32, i32* %4, align 4
  %71 = sext i32 %70 to i64
  %72 = getelementptr inbounds i32, i32* %69, i64 %71
  %73 = load i32, i32* %72, align 4
  %74 = icmp sle i32 %68, %73
  br i1 %74, label %75, label %81

75:                                               ; preds = %67
  %76 = load i32*, i32** %7, align 8
  %77 = load i32, i32* %4, align 4
  %78 = sext i32 %77 to i64
  %79 = getelementptr inbounds i32, i32* %76, i64 %78
  %80 = load i32, i32* %79, align 4
  store i32 %80, i32* %5, align 4
  br label %81

81:                                               ; preds = %75, %67, %55
  br label %82

82:                                               ; preds = %81
  %83 = load i32, i32* %4, align 4
  %84 = add nsw i32 %83, 1
  store i32 %84, i32* %4, align 4
  br label %51

85:                                               ; preds = %51
  %86 = load i32, i32* %5, align 4
  %87 = add nsw i32 %86, 1
  %88 = load i32*, i32** %7, align 8
  %89 = load i32, i32* %3, align 4
  %90 = sext i32 %89 to i64
  %91 = getelementptr inbounds i32, i32* %88, i64 %90
  store i32 %87, i32* %91, align 4
  br label %92

92:                                               ; preds = %85
  %93 = load i32, i32* %3, align 4
  %94 = add nsw i32 %93, 1
  store i32 %94, i32* %3, align 4
  br label %46

95:                                               ; preds = %46
  store i32 0, i32* %3, align 4
  store i32 1, i32* %5, align 4
  br label %96

96:                                               ; preds = %115, %95
  %97 = load i32, i32* %3, align 4
  %98 = load i32, i32* %2, align 4
  %99 = icmp slt i32 %97, %98
  br i1 %99, label %100, label %118

100:                                              ; preds = %96
  %101 = load i32, i32* %5, align 4
  %102 = load i32*, i32** %7, align 8
  %103 = load i32, i32* %3, align 4
  %104 = sext i32 %103 to i64
  %105 = getelementptr inbounds i32, i32* %102, i64 %104
  %106 = load i32, i32* %105, align 4
  %107 = icmp slt i32 %101, %106
  br i1 %107, label %108, label %114

108:                                              ; preds = %100
  %109 = load i32*, i32** %7, align 8
  %110 = load i32, i32* %3, align 4
  %111 = sext i32 %110 to i64
  %112 = getelementptr inbounds i32, i32* %109, i64 %111
  %113 = load i32, i32* %112, align 4
  store i32 %113, i32* %5, align 4
  br label %114

114:                                              ; preds = %108, %100
  br label %115

115:                                              ; preds = %114
  %116 = load i32, i32* %3, align 4
  %117 = add nsw i32 %116, 1
  store i32 %117, i32* %3, align 4
  br label %96

118:                                              ; preds = %96
  %119 = load i32, i32* %5, align 4
  %120 = call i32 (i8*, ...) @printf(i8* getelementptr inbounds ([4 x i8], [4 x i8]* @.str.1, i64 0, i64 0), i32 %119)
  %121 = load i32, i32* %1, align 4
  ret i32 %121
}

declare dso_local i32 @__isoc99_scanf(i8*, ...) #1

; Function Attrs: nounwind
declare dso_local noalias i8* @malloc(i64) #2

declare dso_local i32 @printf(i8*, ...) #1


!llvm.module.flags = !{!0}
!llvm.ident = !{!1}

!0 = !{i32 1, !"wchar_size", i32 4}
!1 = !{!"clang version 10.0.0-4ubuntu1 "}
